target datalayout = "e-m:e-p270:32:32-p271:32:32-p272:64:64-i64:64-i128:128-f80:128-n8:16:32:64-S128"
target triple = "x86_64-pc-linux-gnu"

%struct.ForEachState = type { ptr, i32 }
%struct.List = type { i32, i32, i32, ptr, [0 x %union.ListCell] }
%union.ListCell = type { ptr }
%struct.RowSecurityPolicy = type { ptr, i8, ptr, i8, ptr, ptr, i8 }

; Function Attrs: inlinehint nounwind uwtable
define internal i64 @BoolGetDatum(i1 noundef zeroext %0) #6 {
  %2 = alloca i8, align 1
  %3 = zext i1 %0 to i8
  store i8 %3, ptr %2, align 1
  %4 = load i8, ptr %2, align 1, !range !4, !noundef !5
  %5 = trunc i8 %4 to i1
  %6 = select i1 %5, i32 1, i32 0
  %7 = sext i32 %6 to i64
  ret i64 %7
}

; Function Attrs: inlinehint nounwind uwtable
define internal ptr @list_nth_cell(ptr noundef %0, i32 noundef %1) #6 {
  %3 = alloca ptr, align 8
  %4 = alloca i32, align 4
  store ptr %0, ptr %3, align 8
  store i32 %1, ptr %4, align 4
  %5 = load ptr, ptr %3, align 8
  %6 = getelementptr inbounds nuw %struct.List, ptr %5, i32 0, i32 3
  %7 = load ptr, ptr %6, align 8
  %8 = load i32, ptr %4, align 4
  %9 = sext i32 %8 to i64
  %10 = getelementptr inbounds %union.ListCell, ptr %7, i64 %9
  ret ptr %10
}

; Function Attrs: inlinehint nounwind uwtable
define internal i32 @list_length(ptr noundef %0) #6 {
  %2 = alloca ptr, align 8
  store ptr %0, ptr %2, align 8
  %3 = load ptr, ptr %2, align 8
  %4 = icmp ne ptr %3, null
  br i1 %4, label %5, label %9

5:                                                ; preds = %1
  %6 = load ptr, ptr %2, align 8
  %7 = getelementptr inbounds nuw %struct.List, ptr %6, i32 0, i32 1
  %8 = load i32, ptr %7, align 4
  br label %10

9:                                                ; preds = %1
  br label %10

10:                                               ; preds = %9, %5
  %11 = phi i32 [ %8, %5 ], [ 0, %9 ]
  ret i32 %11
}

; Function Attrs: nounwind uwtable
define internal void @add_security_quals(i32 noundef %0, ptr noundef %1, ptr noundef %2, ptr noundef %3, ptr noundef %4) #0 {
  %6 = alloca i32, align 4
  %7 = alloca ptr, align 8
  %8 = alloca ptr, align 8
  %9 = alloca ptr, align 8
  %10 = alloca ptr, align 8
  %11 = alloca ptr, align 8
  %12 = alloca ptr, align 8
  %13 = alloca ptr, align 8
  %14 = alloca %struct.ForEachState, align 8
  %15 = alloca ptr, align 8
  %16 = alloca %struct.ForEachState, align 8
  %17 = alloca ptr, align 8
  %18 = alloca ptr, align 8
  store i32 %0, ptr %6, align 4
  store ptr %1, ptr %7, align 8
  store ptr %2, ptr %8, align 8
  store ptr %3, ptr %9, align 8
  store ptr %4, ptr %10, align 8
  call void @llvm.lifetime.start.p0(i64 8, ptr %11) #7
  call void @llvm.lifetime.start.p0(i64 8, ptr %12) #7
  store ptr null, ptr %12, align 8
  call void @llvm.lifetime.start.p0(i64 8, ptr %13) #7
  call void @llvm.lifetime.start.p0(i64 16, ptr %14) #7
  %19 = getelementptr inbounds nuw %struct.ForEachState, ptr %14, i32 0, i32 0
  %20 = load ptr, ptr %7, align 8
  store ptr %20, ptr %19, align 8
  %21 = getelementptr inbounds nuw %struct.ForEachState, ptr %14, i32 0, i32 1
  store i32 0, ptr %21, align 8
  %22 = getelementptr i8, ptr %14, i64 12
  call void @llvm.memset.p0.i64(ptr align 4 %22, i8 0, i64 4, i1 false)
  br label %23

23:                                               ; preds = %76, %5
  %24 = getelementptr inbounds nuw %struct.ForEachState, ptr %14, i32 0, i32 0
  %25 = load ptr, ptr %24, align 8
  %26 = icmp ne ptr %25, null
  br i1 %26, label %27, label %44

27:                                               ; preds = %23
  %28 = getelementptr inbounds nuw %struct.ForEachState, ptr %14, i32 0, i32 1
  %29 = load i32, ptr %28, align 8
  %30 = getelementptr inbounds nuw %struct.ForEachState, ptr %14, i32 0, i32 0
  %31 = load ptr, ptr %30, align 8
  %32 = getelementptr inbounds nuw %struct.List, ptr %31, i32 0, i32 1
  %33 = load i32, ptr %32, align 4
  %34 = icmp slt i32 %29, %33
  br i1 %34, label %35, label %44

35:                                               ; preds = %27
  %36 = getelementptr inbounds nuw %struct.ForEachState, ptr %14, i32 0, i32 0
  %37 = load ptr, ptr %36, align 8
  %38 = getelementptr inbounds nuw %struct.List, ptr %37, i32 0, i32 3
  %39 = load ptr, ptr %38, align 8
  %40 = getelementptr inbounds nuw %struct.ForEachState, ptr %14, i32 0, i32 1
  %41 = load i32, ptr %40, align 8
  %42 = sext i32 %41 to i64
  %43 = getelementptr inbounds %union.ListCell, ptr %39, i64 %42
  store ptr %43, ptr %11, align 8
  br label %45

44:                                               ; preds = %27, %23
  store ptr null, ptr %11, align 8
  br label %45

45:                                               ; preds = %44, %35
  %46 = phi i32 [ 1, %35 ], [ 0, %44 ]
  %47 = icmp ne i32 %46, 0
  br i1 %47, label %49, label %48

48:                                               ; preds = %45
  call void @llvm.lifetime.end.p0(i64 16, ptr %14) #7
  br label %80

49:                                               ; preds = %45
  call void @llvm.lifetime.start.p0(i64 8, ptr %15) #7
  %50 = load ptr, ptr %11, align 8
  %51 = load ptr, ptr %50, align 8
  store ptr %51, ptr %15, align 8
  %52 = load ptr, ptr %15, align 8
  %53 = getelementptr inbounds nuw %struct.RowSecurityPolicy, ptr %52, i32 0, i32 4
  %54 = load ptr, ptr %53, align 8
  %55 = icmp ne ptr %54, null
  br i1 %55, label %56, label %75

56:                                               ; preds = %49
  %57 = load ptr, ptr %12, align 8
  %58 = load ptr, ptr %15, align 8
  %59 = getelementptr inbounds nuw %struct.RowSecurityPolicy, ptr %58, i32 0, i32 4
  %60 = load ptr, ptr %59, align 8
  %61 = call ptr @copyObjectImpl(ptr noundef %60)
  %62 = call ptr @lappend(ptr noundef %57, ptr noundef %61)
  store ptr %62, ptr %12, align 8
  %63 = load ptr, ptr %15, align 8
  %64 = getelementptr inbounds nuw %struct.RowSecurityPolicy, ptr %63, i32 0, i32 6
  %65 = load i8, ptr %64, align 8, !range !4, !noundef !5
  %66 = trunc i8 %65 to i1
  %67 = zext i1 %66 to i32
  %68 = load ptr, ptr %10, align 8
  %69 = load i8, ptr %68, align 1, !range !4, !noundef !5
  %70 = trunc i8 %69 to i1
  %71 = zext i1 %70 to i32
  %72 = or i32 %71, %67
  %73 = icmp ne i32 %72, 0
  %74 = zext i1 %73 to i8
  store i8 %74, ptr %68, align 1
  br label %75

75:                                               ; preds = %56, %49
  call void @llvm.lifetime.end.p0(i64 8, ptr %15) #7
  br label %76

76:                                               ; preds = %75
  %77 = getelementptr inbounds nuw %struct.ForEachState, ptr %14, i32 0, i32 1
  %78 = load i32, ptr %77, align 8
  %79 = add i32 %78, 1
  store i32 %79, ptr %77, align 8
  br label %23, !llvm.loop !10

80:                                               ; preds = %48
  %81 = load ptr, ptr %12, align 8
  %82 = icmp ne ptr %81, null
  br i1 %82, label %83, label %169

83:                                               ; preds = %80
  call void @llvm.lifetime.start.p0(i64 16, ptr %16) #7
  %84 = getelementptr inbounds nuw %struct.ForEachState, ptr %16, i32 0, i32 0
  %85 = load ptr, ptr %8, align 8
  store ptr %85, ptr %84, align 8
  %86 = getelementptr inbounds nuw %struct.ForEachState, ptr %16, i32 0, i32 1
  store i32 0, ptr %86, align 8
  %87 = getelementptr i8, ptr %16, i64 12
  call void @llvm.memset.p0.i64(ptr align 4 %87, i8 0, i64 4, i1 false)
  br label %88

88:                                               ; preds = %146, %83
  %89 = getelementptr inbounds nuw %struct.ForEachState, ptr %16, i32 0, i32 0
  %90 = load ptr, ptr %89, align 8
  %91 = icmp ne ptr %90, null
  br i1 %91, label %92, label %109

92:                                               ; preds = %88
  %93 = getelementptr inbounds nuw %struct.ForEachState, ptr %16, i32 0, i32 1
  %94 = load i32, ptr %93, align 8
  %95 = getelementptr inbounds nuw %struct.ForEachState, ptr %16, i32 0, i32 0
  %96 = load ptr, ptr %95, align 8
  %97 = getelementptr inbounds nuw %struct.List, ptr %96, i32 0, i32 1
  %98 = load i32, ptr %97, align 4
  %99 = icmp slt i32 %94, %98
  br i1 %99, label %100, label %109

100:                                              ; preds = %92
  %101 = getelementptr inbounds nuw %struct.ForEachState, ptr %16, i32 0, i32 0
  %102 = load ptr, ptr %101, align 8
  %103 = getelementptr inbounds nuw %struct.List, ptr %102, i32 0, i32 3
  %104 = load ptr, ptr %103, align 8
  %105 = getelementptr inbounds nuw %struct.ForEachState, ptr %16, i32 0, i32 1
  %106 = load i32, ptr %105, align 8
  %107 = sext i32 %106 to i64
  %108 = getelementptr inbounds %union.ListCell, ptr %104, i64 %107
  store ptr %108, ptr %11, align 8
  br label %110

109:                                              ; preds = %92, %88
  store ptr null, ptr %11, align 8
  br label %110

110:                                              ; preds = %109, %100
  %111 = phi i32 [ 1, %100 ], [ 0, %109 ]
  %112 = icmp ne i32 %111, 0
  br i1 %112, label %114, label %113

113:                                              ; preds = %110
  call void @llvm.lifetime.end.p0(i64 16, ptr %16) #7
  br label %150

114:                                              ; preds = %110
  call void @llvm.lifetime.start.p0(i64 8, ptr %17) #7
  %115 = load ptr, ptr %11, align 8
  %116 = load ptr, ptr %115, align 8
  store ptr %116, ptr %17, align 8
  call void @llvm.lifetime.start.p0(i64 8, ptr %18) #7
  %117 = load ptr, ptr %17, align 8
  %118 = getelementptr inbounds nuw %struct.RowSecurityPolicy, ptr %117, i32 0, i32 4
  %119 = load ptr, ptr %118, align 8
  %120 = icmp ne ptr %119, null
  br i1 %120, label %121, label %145

121:                                              ; preds = %114
  %122 = load ptr, ptr %17, align 8
  %123 = getelementptr inbounds nuw %struct.RowSecurityPolicy, ptr %122, i32 0, i32 4
  %124 = load ptr, ptr %123, align 8
  %125 = call ptr @copyObjectImpl(ptr noundef %124)
  store ptr %125, ptr %18, align 8
  %126 = load ptr, ptr %18, align 8
  %127 = load i32, ptr %6, align 4
  call void @ChangeVarNodes(ptr noundef %126, i32 noundef 1, i32 noundef %127, i32 noundef 0)
  %128 = load ptr, ptr %9, align 8
  %129 = load ptr, ptr %128, align 8
  %130 = load ptr, ptr %18, align 8
  %131 = call ptr @list_append_unique(ptr noundef %129, ptr noundef %130)
  %132 = load ptr, ptr %9, align 8
  store ptr %131, ptr %132, align 8
  %133 = load ptr, ptr %17, align 8
  %134 = getelementptr inbounds nuw %struct.RowSecurityPolicy, ptr %133, i32 0, i32 6
  %135 = load i8, ptr %134, align 8, !range !4, !noundef !5
  %136 = trunc i8 %135 to i1
  %137 = zext i1 %136 to i32
  %138 = load ptr, ptr %10, align 8
  %139 = load i8, ptr %138, align 1, !range !4, !noundef !5
  %140 = trunc i8 %139 to i1
  %141 = zext i1 %140 to i32
  %142 = or i32 %141, %137
  %143 = icmp ne i32 %142, 0
  %144 = zext i1 %143 to i8
  store i8 %144, ptr %138, align 1
  br label %145

145:                                              ; preds = %121, %114
  call void @llvm.lifetime.end.p0(i64 8, ptr %18) #7
  call void @llvm.lifetime.end.p0(i64 8, ptr %17) #7
  br label %146

146:                                              ; preds = %145
  %147 = getelementptr inbounds nuw %struct.ForEachState, ptr %16, i32 0, i32 1
  %148 = load i32, ptr %147, align 8
  %149 = add i32 %148, 1
  store i32 %149, ptr %147, align 8
  br label %88, !llvm.loop !11

150:                                              ; preds = %113
  %151 = load ptr, ptr %12, align 8
  %152 = call i32 @list_length(ptr noundef %151)
  %153 = icmp eq i32 %152, 1
  br i1 %153, label %154, label %158

154:                                              ; preds = %150
  %155 = load ptr, ptr %12, align 8
  %156 = call ptr @list_nth_cell(ptr noundef %155, i32 noundef 0)
  %157 = load ptr, ptr %156, align 8
  store ptr %157, ptr %13, align 8
  br label %161

158:                                              ; preds = %150
  %159 = load ptr, ptr %12, align 8
  %160 = call ptr @makeBoolExpr(i32 noundef 1, ptr noundef %159, i32 noundef -1)
  store ptr %160, ptr %13, align 8
  br label %161

161:                                              ; preds = %158, %154
  %162 = load ptr, ptr %13, align 8
  %163 = load i32, ptr %6, align 4
  call void @ChangeVarNodes(ptr noundef %162, i32 noundef 1, i32 noundef %163, i32 noundef 0)
  %164 = load ptr, ptr %9, align 8
  %165 = load ptr, ptr %164, align 8
  %166 = load ptr, ptr %13, align 8
  %167 = call ptr @list_append_unique(ptr noundef %165, ptr noundef %166)
  %168 = load ptr, ptr %9, align 8
  store ptr %167, ptr %168, align 8
  br label %176

169:                                              ; preds = %80
  %170 = load ptr, ptr %9, align 8
  %171 = load ptr, ptr %170, align 8
  %172 = call i64 @BoolGetDatum(i1 noundef zeroext false)
  %173 = call ptr @makeConst(i32 noundef 16, i32 noundef -1, i32 noundef 0, i32 noundef 1, i64 noundef %172, i1 noundef zeroext false, i1 noundef zeroext true)
  %174 = call ptr @lappend(ptr noundef %171, ptr noundef %173)
  %175 = load ptr, ptr %9, align 8
  store ptr %174, ptr %175, align 8
  br label %176

176:                                              ; preds = %169, %161
  call void @llvm.lifetime.end.p0(i64 8, ptr %13) #7
  call void @llvm.lifetime.end.p0(i64 8, ptr %12) #7
  call void @llvm.lifetime.end.p0(i64 8, ptr %11) #7
  ret void
}