; Function Attrs: nounwind uwtable
define internal fastcc void @add_security_quals(i32 noundef %0, ptr noundef readonly captures(address_is_null) %1, ptr noundef readonly captures(address_is_null) %2, ptr noundef captures(none) %3, ptr noundef captures(none) %4) unnamed_addr #0 {
  %6 = getelementptr inbounds nuw i8, ptr %1, i64 4
  %.not = icmp eq ptr %1, null
  br i1 %.not, label %._crit_edge.thread, label %.lr.ph

.lr.ph:                                           ; preds = %5
  %7 = getelementptr inbounds nuw i8, ptr %1, i64 16
  %8 = load i32, ptr %6, align 4
  %9 = icmp sgt i32 %8, 0
  br i1 %9, label %.lr.ph66, label %._crit_edge.thread

._crit_edge:                                      ; preds = %27
  %.not47 = icmp eq ptr %.140, null
  br i1 %.not47, label %._crit_edge.thread, label %.preheader

.preheader:                                       ; preds = %._crit_edge
  %10 = getelementptr inbounds nuw i8, ptr %2, i64 4
  %.not48 = icmp eq ptr %2, null
  br i1 %.not48, label %._crit_edge70, label %.lr.ph69

.lr.ph69:                                         ; preds = %.preheader
  %11 = getelementptr inbounds nuw i8, ptr %2, i64 16
  %12 = load i32, ptr %10, align 4
  %13 = icmp sgt i32 %12, 0
  br i1 %13, label %.lr.ph73, label %._crit_edge70

.lr.ph66:                                         ; preds = %.lr.ph, %27
  %14 = phi i32 [ %28, %27 ], [ %8, %.lr.ph ]
  %indvars.iv = phi i64 [ %indvars.iv.next, %27 ], [ 0, %.lr.ph ]
  %.0396064 = phi ptr [ %.140, %27 ], [ null, %.lr.ph ]
  %15 = load ptr, ptr %7, align 8
  %16 = getelementptr inbounds nuw %union.ListCell, ptr %15, i64 %indvars.iv
  %17 = load ptr, ptr %16, align 8
  %18 = getelementptr inbounds nuw i8, ptr %17, i64 32
  %19 = load ptr, ptr %18, align 8
  %.not51 = icmp eq ptr %19, null
  br i1 %.not51, label %27, label %20

20:                                               ; preds = %.lr.ph66
  %21 = tail call ptr @copyObjectImpl(ptr noundef nonnull %19) #7
  %22 = tail call ptr @lappend(ptr noundef %.0396064, ptr noundef %21) #7
  %23 = getelementptr inbounds nuw i8, ptr %17, i64 48
  %24 = load i8, ptr %23, align 8, !range !6, !noundef !7
  %25 = load i8, ptr %4, align 1, !range !6, !noundef !7
  %26 = or i8 %25, %24
  store i8 %26, ptr %4, align 1
  %.pre = load i32, ptr %6, align 4
  br label %27

27:                                               ; preds = %20, %.lr.ph66
  %28 = phi i32 [ %.pre, %20 ], [ %14, %.lr.ph66 ]
  %.140 = phi ptr [ %22, %20 ], [ %.0396064, %.lr.ph66 ]
  %indvars.iv.next = add nuw nsw i64 %indvars.iv, 1
  %29 = sext i32 %28 to i64
  %30 = icmp slt i64 %indvars.iv.next, %29
  br i1 %30, label %.lr.ph66, label %._crit_edge

._crit_edge70:                                    ; preds = %47, %.lr.ph69, %.preheader
  %31 = getelementptr i8, ptr %.140, i64 4
  %.039.val = load i32, ptr %31, align 4
  %32 = icmp eq i32 %.039.val, 1
  br i1 %32, label %51, label %54

.lr.ph73:                                         ; preds = %.lr.ph69, %47
  %33 = phi i32 [ %48, %47 ], [ %12, %.lr.ph69 ]
  %indvars.iv75 = phi i64 [ %indvars.iv.next76, %47 ], [ 0, %.lr.ph69 ]
  %34 = load ptr, ptr %11, align 8
  %35 = getelementptr inbounds nuw %union.ListCell, ptr %34, i64 %indvars.iv75
  %36 = load ptr, ptr %35, align 8
  %37 = getelementptr inbounds nuw i8, ptr %36, i64 32
  %38 = load ptr, ptr %37, align 8
  %.not50 = icmp eq ptr %38, null
  br i1 %.not50, label %47, label %39

39:                                               ; preds = %.lr.ph73
  %40 = tail call ptr @copyObjectImpl(ptr noundef nonnull %38) #7
  tail call void @ChangeVarNodes(ptr noundef %40, i32 noundef 1, i32 noundef %0, i32 noundef 0) #7
  %41 = load ptr, ptr %3, align 8
  %42 = tail call ptr @list_append_unique(ptr noundef %41, ptr noundef %40) #7
  store ptr %42, ptr %3, align 8
  %43 = getelementptr inbounds nuw i8, ptr %36, i64 48
  %44 = load i8, ptr %43, align 8, !range !6, !noundef !7
  %45 = load i8, ptr %4, align 1, !range !6, !noundef !7
  %46 = or i8 %45, %44
  store i8 %46, ptr %4, align 1
  %.pre78 = load i32, ptr %10, align 4
  br label %47

47:                                               ; preds = %39, %.lr.ph73
  %48 = phi i32 [ %.pre78, %39 ], [ %33, %.lr.ph73 ]
  %indvars.iv.next76 = add nuw nsw i64 %indvars.iv75, 1
  %49 = sext i32 %48 to i64
  %50 = icmp slt i64 %indvars.iv.next76, %49
  br i1 %50, label %.lr.ph73, label %._crit_edge70

51:                                               ; preds = %._crit_edge70
  %52 = getelementptr i8, ptr %.140, i64 16
  %.039.val52 = load ptr, ptr %52, align 8
  %53 = load ptr, ptr %.039.val52, align 8
  br label %56

54:                                               ; preds = %._crit_edge70
  %55 = tail call ptr @makeBoolExpr(i32 noundef 1, ptr noundef nonnull %.140, i32 noundef -1) #7
  br label %56

56:                                               ; preds = %54, %51
  %.041 = phi ptr [ %53, %51 ], [ %55, %54 ]
  tail call void @ChangeVarNodes(ptr noundef %.041, i32 noundef 1, i32 noundef %0, i32 noundef 0) #7
  %57 = load ptr, ptr %3, align 8
  %58 = tail call ptr @list_append_unique(ptr noundef %57, ptr noundef %.041) #7
  br label %62

._crit_edge.thread:                               ; preds = %.lr.ph, %5, %._crit_edge
  %59 = load ptr, ptr %3, align 8
  %60 = tail call ptr @makeConst(i32 noundef 16, i32 noundef -1, i32 noundef 0, i32 noundef 1, i64 noundef 0, i1 noundef zeroext false, i1 noundef zeroext true) #7
  %61 = tail call ptr @lappend(ptr noundef %59, ptr noundef %60) #7
  br label %62

62:                                               ; preds = %._crit_edge.thread, %56
  %storemerge = phi ptr [ %61, %._crit_edge.thread ], [ %58, %56 ]
  store ptr %storemerge, ptr %3, align 8
  ret void
}